(dp0
S'Ni'
p1
(lp2
F-0.0172
aF35.738999999999997
aF0.31740000000000002
aF14.269
aF0.71360000000000001
aF4.5659999999999998
aF-0.0143
asS'Ti2+'
p3
(lp4
F0.5091
aF24.975999999999999
aF0.51619999999999999
aF8.7569999999999997
aF-0.0281
aF0.91600000000000004
aF0.0015
asS'V4+'
p5
(lp6
F0.31059999999999999
aF16.815999999999999
aF0.7198
aF7.0490000000000004
aF-0.0521
aF0.30199999999999999
aF0.022100000000000002
asS'Mn3+'
p7
(lp8
F0.41980000000000001
aF14.282999999999999
aF0.60540000000000005
aF5.4690000000000003
aF0.92410000000000003
aF-0.0089999999999999993
aF-0.94979999999999998
asS'Mn2+'
p9
(lp10
F0.42199999999999999
aF17.684000000000001
aF0.5948
aF6.0049999999999999
aF0.0043
aF-0.60899999999999999
aF-0.021899999999999999
asS'Ti'
p11
(lp12
F0.4657
aF33.590000000000003
aF0.54900000000000004
aF9.8789999999999996
aF-0.029100000000000001
aF0.32300000000000001
aF0.0123
asS'Ni4+'
p13
(lp14
F-0.0089999999999999993
aF35.860999999999997
aF0.27760000000000001
aF11.789999999999999
aF0.74739999999999995
aF4.2009999999999996
aF-0.016299999999999999
asS'Cr+'
p15
(lp16
F-0.097699999999999995
aF0.047
aF0.45440000000000003
aF26.004999999999999
aF0.55789999999999995
aF7.4889999999999999
aF0.083099999999999993
asS'Co+'
p17
(lp18
F0.099000000000000005
aF33.125
aF0.36449999999999999
aF15.177
aF0.54700000000000004
aF5.008
aF-0.0109
asS'Sc2+'
p19
(lp20
F0.50480000000000003
aF31.402999999999999
aF0.51859999999999995
aF10.99
aF-0.0241
aF1.1830000000000001
aF0.0
asS'Fe4+'
p21
(lp22
F0.37819999999999998
aF11.380000000000001
aF0.65559999999999996
aF4.5919999999999996
aF-0.034599999999999999
aF0.48299999999999998
aF0.00050000000000000001
asS'Ni2+'
p23
(lp24
F0.016299999999999999
aF35.883000000000003
aF0.3916
aF13.223000000000001
aF0.60519999999999996
aF4.3390000000000004
aF-0.013299999999999999
asS'Sc+'
p25
(lp26
F0.4889
aF51.159999999999997
aF0.52029999999999998
aF14.076000000000001
aF-0.0286
aF0.17899999999999999
aF0.018499999999999999
asS'Cr3+'
p27
(lp28
F-0.30940000000000001
aF0.027
aF0.36799999999999999
aF17.035
aF0.65590000000000004
aF6.524
aF0.28560000000000002
asS'V+'
p29
(lp30
F0.44440000000000002
aF32.648000000000003
aF0.56830000000000003
aF9.0969999999999995
aF-0.22850000000000001
aF0.021999999999999999
aF0.215
asS'Fe3+'
p31
(lp32
F0.3972
aF13.244
aF0.62949999999999995
aF4.9029999999999996
aF-0.031399999999999997
aF0.34999999999999998
aF0.0044000000000000003
asS'Co2+'
p33
(lp34
F0.43319999999999997
aF14.355
aF0.5857
aF4.6079999999999997
aF-0.038199999999999998
aF0.13400000000000001
aF0.017899999999999999
asS'Mn+'
p35
(lp36
F-0.0138
aF0.42099999999999999
aF0.42309999999999998
aF24.667999999999999
aF0.59050000000000002
aF6.6550000000000002
aF-0.001
asS'Fe'
p37
(lp38
F0.070599999999999996
aF35.008000000000003
aF0.3589
aF15.358000000000001
aF0.58189999999999997
aF5.5609999999999999
aF-0.0114
asS'V2+'
p39
(lp40
F0.40849999999999997
aF23.853000000000002
aF0.60909999999999997
aF8.2460000000000004
aF-0.1676
aF0.041000000000000002
aF0.14960000000000001
asS'Cu3+'
p41
(lp42
F0.0030999999999999999
aF34.906999999999996
aF0.35820000000000002
aF10.914
aF0.65310000000000001
aF3.8279999999999998
aF-0.0147
asS'Co4+'
p43
(lp44
F0.35149999999999998
aF10.778
aF0.67779999999999996
aF4.234
aF-0.038899999999999997
aF0.24099999999999999
aF0.0097999999999999997
asS'Ni3+'
p45
(lp46
F0.0011999999999999999
aF35.0
aF0.3468
aF11.987
aF0.66669999999999996
aF4.2519999999999998
aF-0.014800000000000001
asS'Mn'
p47
(lp48
F0.24379999999999999
aF24.963000000000001
aF0.1472
aF15.673
aF0.61890000000000001
aF6.54
aF-0.010500000000000001
asS'Ti3+'
p49
(lp50
F0.35709999999999997
aF22.841000000000001
aF0.66879999999999995
aF8.9309999999999992
aF-0.035400000000000001
aF0.48299999999999998
aF0.0099000000000000008
asS'Fe+'
p51
(lp52
F0.12509999999999999
aF34.963000000000001
aF0.3629
aF15.513999999999999
aF0.52229999999999999
aF5.5910000000000002
aF-0.010500000000000001
asS'V'
p53
(lp54
F0.40860000000000002
aF28.811
aF0.60770000000000002
aF8.5440000000000005
aF-0.029499999999999998
aF0.27700000000000002
aF0.0123
asS'Sc'
p55
(lp56
F0.25119999999999998
aF90.030000000000001
aF0.32900000000000001
aF39.402000000000001
aF0.42349999999999999
aF14.321999999999999
aF-0.0043
asS'Cu+'
p57
(lp58
F0.074899999999999994
aF34.966000000000001
aF0.41470000000000001
aF11.763999999999999
aF0.52380000000000004
aF3.8500000000000001
aF-0.012699999999999999
asS'Cr4+'
p59
(lp60
F-0.23200000000000001
aF0.042999999999999997
aF0.31009999999999999
aF14.952
aF0.71819999999999995
aF6.173
aF0.20419999999999999
asS'Ni+'
p61
(lp62
F0.070499999999999993
aF35.856000000000002
aF0.39839999999999998
aF13.804
aF0.54269999999999996
aF4.3970000000000002
aF-0.0118
asS'Mn4+'
p63
(lp64
F0.376
aF12.566000000000001
aF0.66020000000000001
aF5.133
aF-0.037199999999999997
aF0.56299999999999994
aF0.0011000000000000001
asS'Co'
p65
(lp66
F0.41389999999999999
aF16.161999999999999
aF0.60129999999999995
aF4.7800000000000002
aF-0.15179999999999999
aF0.021000000000000001
aF0.13450000000000001
asS'Cr2+'
p67
(lp68
F1.2023999999999999
aF-0.0050000000000000001
aF0.4158
aF20.547999999999998
aF0.60319999999999996
aF6.9560000000000004
aF-1.2218
asS'Fe2+'
p69
(lp70
F0.0263
aF34.960000000000001
aF0.36680000000000001
aF15.943
aF0.61880000000000002
aF5.5940000000000003
aF-0.011900000000000001
asS'Co3+'
p71
(lp72
F0.39019999999999999
aF12.507999999999999
aF0.63239999999999996
aF4.4569999999999999
aF-0.14999999999999999
aF0.034000000000000002
aF0.12720000000000001
asS'Cu4+'
p73
(lp74
F-0.0132
aF30.681999999999999
aF0.28010000000000002
aF11.163
aF0.749
aF3.8170000000000002
aF-0.016500000000000001
asS'Cr'
p75
(lp76
F0.1135
aF45.198999999999998
aF0.34810000000000002
aF19.492999999999999
aF0.54769999999999996
aF7.3540000000000001
aF-0.0091999999999999998
asS'V3+'
p77
(lp78
F0.35980000000000001
aF19.335999999999999
aF0.66320000000000001
aF7.617
aF-0.30640000000000001
aF0.029999999999999999
aF0.28349999999999997
asS'Ti+'
p79
(lp80
F0.50929999999999997
aF36.703000000000003
aF0.50319999999999998
aF10.371
aF-0.0263
aF0.311
aF0.011599999999999999
asS'Cu2+'
p81
(lp82
F0.023199999999999998
aF34.969000000000001
aF0.40229999999999999
aF11.564
aF0.58819999999999995
aF3.843
aF-0.0137
asS'Cu'
p83
(lp84
F0.090899999999999995
aF34.984000000000002
aF0.4088
aF11.443
aF0.51280000000000003
aF3.8250000000000002
aF-0.0124
as.